target datalayout = "e-m:e-p270:32:32-p271:32:32-p272:64:64-i64:64-i128:128-f80:128-n8:16:32:64-S128"
target triple = "x86_64-pc-linux-gnu"

@KEY_HOOK = internal constant i8 104, align 1

; Function Attrs: nounwind uwtable
define internal void @gethooktable(ptr noundef %0) #0 {
  %2 = alloca ptr, align 8
  store ptr %0, ptr %2, align 8, !tbaa !4
  %3 = load ptr, ptr %2, align 8, !tbaa !4
  call void @lua_pushlightuserdata(ptr noundef %3, ptr noundef @KEY_HOOK)
  %4 = load ptr, ptr %2, align 8, !tbaa !4
  call void @lua_rawget(ptr noundef %4, i32 noundef -10000)
  %5 = load ptr, ptr %2, align 8, !tbaa !4
  %6 = call i32 @lua_type(ptr noundef %5, i32 noundef -1)
  %7 = icmp eq i32 %6, 5
  br i1 %7, label %14, label %8

8:                                                ; preds = %1
  %9 = load ptr, ptr %2, align 8, !tbaa !4
  call void @lua_settop(ptr noundef %9, i32 noundef -2)
  %10 = load ptr, ptr %2, align 8, !tbaa !4
  call void @lua_createtable(ptr noundef %10, i32 noundef 0, i32 noundef 1)
  %11 = load ptr, ptr %2, align 8, !tbaa !4
  call void @lua_pushlightuserdata(ptr noundef %11, ptr noundef @KEY_HOOK)
  %12 = load ptr, ptr %2, align 8, !tbaa !4
  call void @lua_pushvalue(ptr noundef %12, i32 noundef -2)
  %13 = load ptr, ptr %2, align 8, !tbaa !4
  call void @lua_rawset(ptr noundef %13, i32 noundef -10000)
  br label %14

14:                                               ; preds = %8, %1
  ret void
}