; Function Attrs: nounwind uwtable
define internal fastcc void @gethooktable(ptr noundef %0) unnamed_addr #0 {
  tail call void @lua_pushlightuserdata(ptr noundef %0, ptr noundef nonnull @KEY_HOOK) #8
  tail call void @lua_rawget(ptr noundef %0, i32 noundef -10000) #8
  %2 = tail call i32 @lua_type(ptr noundef %0, i32 noundef -1) #8
  %3 = icmp eq i32 %2, 5
  br i1 %3, label %5, label %4

4:                                                ; preds = %1
  tail call void @lua_settop(ptr noundef %0, i32 noundef -2) #8
  tail call void @lua_createtable(ptr noundef %0, i32 noundef 0, i32 noundef 1) #8
  tail call void @lua_pushlightuserdata(ptr noundef %0, ptr noundef nonnull @KEY_HOOK) #8
  tail call void @lua_pushvalue(ptr noundef %0, i32 noundef -2) #8
  tail call void @lua_rawset(ptr noundef %0, i32 noundef -10000) #8
  br label %5

5:                                                ; preds = %4, %1
  ret void
}